target datalayout = "e-m:e-p270:32:32-p271:32:32-p272:64:64-i64:64-i128:128-f80:128-n8:16:32:64-S128"
target triple = "x86_64-pc-linux-gnu"

%struct.ForEachState = type { ptr, i32 }
%struct.List = type { i32, i32, i32, ptr, [0 x %union.ListCell] }
%union.ListCell = type { ptr }
%struct.TimeLineHistoryEntry = type { i32, i64, i64 }

@recoveryTargetTLI = dso_local global i32 0, align 4
@.str.6 = private unnamed_addr constant [15 x i8] c"xlogrecovery.c\00", align 1
@expectedTLEs = internal global ptr null, align 8
@.str.164 = private unnamed_addr constant [62 x i8] c"new timeline %u is not a child of database system timeline %u\00", align 1
@__func__.rescanLatestTimeLine = private unnamed_addr constant [21 x i8] c"rescanLatestTimeLine\00", align 1
@.str.165 = private unnamed_addr constant [99 x i8] c"new timeline %u forked off current database system timeline %u before current recovery point %X/%X\00", align 1
@.str.166 = private unnamed_addr constant [26 x i8] c"new target timeline is %u\00", align 1

; Function Attrs: nounwind uwtable
define internal zeroext i1 @rescanLatestTimeLine(i32 noundef %0, i64 noundef %1) #0 {
  %3 = alloca i1, align 1
  %4 = alloca i32, align 4
  %5 = alloca i64, align 8
  %6 = alloca ptr, align 8
  %7 = alloca i8, align 1
  %8 = alloca ptr, align 8
  %9 = alloca i32, align 4
  %10 = alloca i32, align 4
  %11 = alloca ptr, align 8
  %12 = alloca i32, align 4
  %13 = alloca %struct.ForEachState, align 8
  %14 = alloca i32, align 4
  store i32 %0, ptr %4, align 4
  store i64 %1, ptr %5, align 8
  call void @llvm.lifetime.start.p0(i64 8, ptr %6) #14
  call void @llvm.lifetime.start.p0(i64 1, ptr %7) #14
  call void @llvm.lifetime.start.p0(i64 8, ptr %8) #14
  call void @llvm.lifetime.start.p0(i64 4, ptr %9) #14
  call void @llvm.lifetime.start.p0(i64 4, ptr %10) #14
  %15 = load i32, ptr @recoveryTargetTLI, align 4
  store i32 %15, ptr %10, align 4
  call void @llvm.lifetime.start.p0(i64 8, ptr %11) #14
  store ptr null, ptr %11, align 8
  %16 = load i32, ptr @recoveryTargetTLI, align 4
  %17 = call i32 @findNewestTimeLine(i32 noundef %16)
  store i32 %17, ptr %9, align 4
  %18 = load i32, ptr %9, align 4
  %19 = load i32, ptr @recoveryTargetTLI, align 4
  %20 = icmp eq i32 %18, %19
  br i1 %20, label %21, label %22

21:                                               ; preds = %2
  store i1 false, ptr %3, align 1
  store i32 1, ptr %12, align 4
  br label %131

22:                                               ; preds = %2
  %23 = load i32, ptr %9, align 4
  %24 = call ptr @readTimeLineHistory(i32 noundef %23)
  store ptr %24, ptr %6, align 8
  store i8 0, ptr %7, align 1
  call void @llvm.lifetime.start.p0(i64 16, ptr %13) #14
  %25 = getelementptr inbounds nuw %struct.ForEachState, ptr %13, i32 0, i32 0
  %26 = load ptr, ptr %6, align 8
  store ptr %26, ptr %25, align 8
  %27 = getelementptr inbounds nuw %struct.ForEachState, ptr %13, i32 0, i32 1
  store i32 0, ptr %27, align 8
  %28 = getelementptr i8, ptr %13, i64 12
  call void @llvm.memset.p0.i64(ptr align 4 %28, i8 0, i64 4, i1 false)
  br label %29

29:                                               ; preds = %65, %22
  %30 = getelementptr inbounds nuw %struct.ForEachState, ptr %13, i32 0, i32 0
  %31 = load ptr, ptr %30, align 8
  %32 = icmp ne ptr %31, null
  br i1 %32, label %33, label %50

33:                                               ; preds = %29
  %34 = getelementptr inbounds nuw %struct.ForEachState, ptr %13, i32 0, i32 1
  %35 = load i32, ptr %34, align 8
  %36 = getelementptr inbounds nuw %struct.ForEachState, ptr %13, i32 0, i32 0
  %37 = load ptr, ptr %36, align 8
  %38 = getelementptr inbounds nuw %struct.List, ptr %37, i32 0, i32 1
  %39 = load i32, ptr %38, align 4
  %40 = icmp slt i32 %35, %39
  br i1 %40, label %41, label %50

41:                                               ; preds = %33
  %42 = getelementptr inbounds nuw %struct.ForEachState, ptr %13, i32 0, i32 0
  %43 = load ptr, ptr %42, align 8
  %44 = getelementptr inbounds nuw %struct.List, ptr %43, i32 0, i32 3
  %45 = load ptr, ptr %44, align 8
  %46 = getelementptr inbounds nuw %struct.ForEachState, ptr %13, i32 0, i32 1
  %47 = load i32, ptr %46, align 8
  %48 = sext i32 %47 to i64
  %49 = getelementptr inbounds %union.ListCell, ptr %45, i64 %48
  store ptr %49, ptr %8, align 8
  br label %51

50:                                               ; preds = %33, %29
  store ptr null, ptr %8, align 8
  br label %51

51:                                               ; preds = %50, %41
  %52 = phi i32 [ 1, %41 ], [ 0, %50 ]
  %53 = icmp ne i32 %52, 0
  br i1 %53, label %55, label %54

54:                                               ; preds = %51
  store i32 2, ptr %12, align 4
  br label %69

55:                                               ; preds = %51
  %56 = load ptr, ptr %8, align 8
  %57 = load ptr, ptr %56, align 8
  store ptr %57, ptr %11, align 8
  %58 = load ptr, ptr %11, align 8
  %59 = getelementptr inbounds nuw %struct.TimeLineHistoryEntry, ptr %58, i32 0, i32 0
  %60 = load i32, ptr %59, align 8
  %61 = load i32, ptr @recoveryTargetTLI, align 4
  %62 = icmp eq i32 %60, %61
  br i1 %62, label %63, label %64

63:                                               ; preds = %55
  store i8 1, ptr %7, align 1
  store i32 2, ptr %12, align 4
  br label %69

64:                                               ; preds = %55
  br label %65

65:                                               ; preds = %64
  %66 = getelementptr inbounds nuw %struct.ForEachState, ptr %13, i32 0, i32 1
  %67 = load i32, ptr %66, align 8
  %68 = add i32 %67, 1
  store i32 %68, ptr %66, align 8
  br label %29, !llvm.loop !32

69:                                               ; preds = %63, %54
  call void @llvm.lifetime.end.p0(i64 16, ptr %13) #14
  br label %70

70:                                               ; preds = %69
  %71 = load i8, ptr %7, align 1, !range !4, !noundef !5
  %72 = trunc i8 %71 to i1
  br i1 %72, label %86, label %73

73:                                               ; preds = %70
  br label %74

74:                                               ; preds = %73
  br i1 false, label %75, label %77

75:                                               ; preds = %74
  %76 = call zeroext i1 @errstart_cold(i32 noundef 15, ptr noundef null) #15
  br i1 %76, label %79, label %83

77:                                               ; preds = %74
  %78 = call zeroext i1 @errstart(i32 noundef 15, ptr noundef null)
  br i1 %78, label %79, label %83

79:                                               ; preds = %77, %75
  %80 = load i32, ptr %9, align 4
  %81 = load i32, ptr %4, align 4
  %82 = call i32 (ptr, ...) @errmsg(ptr noundef @.str.164, i32 noundef %80, i32 noundef %81)
  call void @errfinish(ptr noundef @.str.6, i32 noundef 4160, ptr noundef @__func__.rescanLatestTimeLine)
  br label %83

83:                                               ; preds = %79, %77, %75
  br label %84

84:                                               ; preds = %83
  br label %85

85:                                               ; preds = %84
  store i1 false, ptr %3, align 1
  store i32 1, ptr %12, align 4
  br label %131

86:                                               ; preds = %70
  %87 = load ptr, ptr %11, align 8
  %88 = getelementptr inbounds nuw %struct.TimeLineHistoryEntry, ptr %87, i32 0, i32 2
  %89 = load i64, ptr %88, align 8
  %90 = load i64, ptr %5, align 8
  %91 = icmp ult i64 %89, %90
  br i1 %91, label %92, label %113

92:                                               ; preds = %86
  br label %93

93:                                               ; preds = %92
  br i1 false, label %94, label %96

94:                                               ; preds = %93
  %95 = call zeroext i1 @errstart_cold(i32 noundef 15, ptr noundef null) #15
  br i1 %95, label %98, label %110

96:                                               ; preds = %93
  %97 = call zeroext i1 @errstart(i32 noundef 15, ptr noundef null)
  br i1 %97, label %98, label %110

98:                                               ; preds = %96, %94
  %99 = load i32, ptr %9, align 4
  %100 = load i32, ptr %4, align 4
  br label %101

101:                                              ; preds = %98
  br label %102

102:                                              ; preds = %101
  br label %103

103:                                              ; preds = %102
  store i32 1, ptr %14, align 4
  %104 = load i64, ptr %5, align 8
  %105 = lshr i64 %104, 32
  %106 = trunc i64 %105 to i32
  %107 = load i64, ptr %5, align 8
  %108 = trunc i64 %107 to i32
  %109 = call i32 (ptr, ...) @errmsg(ptr noundef @.str.165, i32 noundef %99, i32 noundef %100, i32 noundef %106, i32 noundef %108)
  call void @errfinish(ptr noundef @.str.6, i32 noundef 4175, ptr noundef @__func__.rescanLatestTimeLine)
  br label %110

110:                                              ; preds = %103, %96, %94
  br label %111

111:                                              ; preds = %110
  br label %112

112:                                              ; preds = %111
  store i1 false, ptr %3, align 1
  store i32 1, ptr %12, align 4
  br label %131

113:                                              ; preds = %86
  %114 = load i32, ptr %9, align 4
  store i32 %114, ptr @recoveryTargetTLI, align 4
  %115 = load ptr, ptr @expectedTLEs, align 8
  call void @list_free_deep(ptr noundef %115)
  %116 = load ptr, ptr %6, align 8
  store ptr %116, ptr @expectedTLEs, align 8
  %117 = load i32, ptr %10, align 4
  %118 = add i32 %117, 1
  %119 = load i32, ptr %9, align 4
  call void @restoreTimeLineHistoryFiles(i32 noundef %118, i32 noundef %119)
  br label %120

120:                                              ; preds = %113
  br i1 false, label %121, label %123

121:                                              ; preds = %120
  %122 = call zeroext i1 @errstart_cold(i32 noundef 15, ptr noundef null) #15
  br i1 %122, label %125, label %128

123:                                              ; preds = %120
  %124 = call zeroext i1 @errstart(i32 noundef 15, ptr noundef null)
  br i1 %124, label %125, label %128

125:                                              ; preds = %123, %121
  %126 = load i32, ptr @recoveryTargetTLI, align 4
  %127 = call i32 (ptr, ...) @errmsg(ptr noundef @.str.166, i32 noundef %126)
  call void @errfinish(ptr noundef @.str.6, i32 noundef 4192, ptr noundef @__func__.rescanLatestTimeLine)
  br label %128

128:                                              ; preds = %125, %123, %121
  br label %129

129:                                              ; preds = %128
  br label %130

130:                                              ; preds = %129
  store i1 true, ptr %3, align 1
  store i32 1, ptr %12, align 4
  br label %131

131:                                              ; preds = %130, %112, %85, %21
  call void @llvm.lifetime.end.p0(i64 8, ptr %11) #14
  call void @llvm.lifetime.end.p0(i64 4, ptr %10) #14
  call void @llvm.lifetime.end.p0(i64 4, ptr %9) #14
  call void @llvm.lifetime.end.p0(i64 8, ptr %8) #14
  call void @llvm.lifetime.end.p0(i64 1, ptr %7) #14
  call void @llvm.lifetime.end.p0(i64 8, ptr %6) #14
  %132 = load i1, ptr %3, align 1
  ret i1 %132
}