; Function Attrs: nounwind uwtable
define internal fastcc noundef zeroext i1 @rescanLatestTimeLine(i32 noundef %0, i64 noundef %1) unnamed_addr #2 {
  %3 = load i32, ptr @recoveryTargetTLI, align 4
  %4 = tail call i32 @findNewestTimeLine(i32 noundef %3) #23
  %5 = load i32, ptr @recoveryTargetTLI, align 4
  %6 = icmp eq i32 %4, %5
  br i1 %6, label %41, label %7

7:                                                ; preds = %2
  %8 = tail call ptr @readTimeLineHistory(i32 noundef %4) #23
  %.not = icmp eq ptr %8, null
  br i1 %.not, label %._crit_edge, label %.lr.ph

.lr.ph:                                           ; preds = %7
  %9 = getelementptr inbounds nuw i8, ptr %8, i64 4
  %10 = load i32, ptr %9, align 4
  %11 = load i32, ptr @recoveryTargetTLI, align 4
  %12 = icmp sgt i32 %10, 0
  br i1 %12, label %.lr.ph38, label %._crit_edge

.lr.ph38:                                         ; preds = %.lr.ph
  %13 = getelementptr inbounds nuw i8, ptr %8, i64 16
  %14 = load ptr, ptr %13, align 8
  %wide.trip.count = zext nneg i32 %10 to i64
  br label %16

15:                                               ; preds = %16
  %indvars.iv.next = add nuw nsw i64 %indvars.iv, 1
  %exitcond.not = icmp eq i64 %indvars.iv.next, %wide.trip.count
  br i1 %exitcond.not, label %._crit_edge, label %16

16:                                               ; preds = %.lr.ph38, %15
  %indvars.iv = phi i64 [ 0, %.lr.ph38 ], [ %indvars.iv.next, %15 ]
  %17 = getelementptr inbounds nuw %union.ListCell, ptr %14, i64 %indvars.iv
  %18 = load ptr, ptr %17, align 8
  %19 = load i32, ptr %18, align 8
  %20 = icmp eq i32 %19, %11
  br i1 %20, label %.split, label %15

._crit_edge:                                      ; preds = %15, %.lr.ph, %7
  %21 = tail call zeroext i1 @errstart(i32 noundef 15, ptr noundef null) #23
  br i1 %21, label %22, label %41

22:                                               ; preds = %._crit_edge
  %23 = tail call i32 (ptr, ...) @errmsg(ptr noundef nonnull @.str.164, i32 noundef %4, i32 noundef %0) #23
  br label %.sink.split

.split:                                           ; preds = %16
  %24 = getelementptr inbounds nuw i8, ptr %18, i64 16
  %25 = load i64, ptr %24, align 8
  %26 = icmp ult i64 %25, %1
  br i1 %26, label %27, label %34

27:                                               ; preds = %.split
  %28 = tail call zeroext i1 @errstart(i32 noundef 15, ptr noundef null) #23
  br i1 %28, label %29, label %41

29:                                               ; preds = %27
  %30 = lshr i64 %1, 32
  %31 = trunc nuw i64 %30 to i32
  %32 = trunc i64 %1 to i32
  %33 = tail call i32 (ptr, ...) @errmsg(ptr noundef nonnull @.str.165, i32 noundef %4, i32 noundef %0, i32 noundef %31, i32 noundef %32) #23
  br label %.sink.split

34:                                               ; preds = %.split
  store i32 %4, ptr @recoveryTargetTLI, align 4
  %35 = load ptr, ptr @expectedTLEs, align 8
  tail call void @list_free_deep(ptr noundef %35) #23
  store ptr %8, ptr @expectedTLEs, align 8
  %36 = add i32 %3, 1
  tail call void @restoreTimeLineHistoryFiles(i32 noundef %36, i32 noundef %4) #23
  %37 = tail call zeroext i1 @errstart(i32 noundef 15, ptr noundef null) #23
  br i1 %37, label %38, label %41

38:                                               ; preds = %34
  %39 = load i32, ptr @recoveryTargetTLI, align 4
  %40 = tail call i32 (ptr, ...) @errmsg(ptr noundef nonnull @.str.166, i32 noundef %39) #23
  br label %.sink.split

.sink.split:                                      ; preds = %22, %29, %38
  %.sink = phi i32 [ 4192, %38 ], [ 4175, %29 ], [ 4160, %22 ]
  %.0.ph = phi i1 [ true, %38 ], [ false, %29 ], [ false, %22 ]
  tail call void @errfinish(ptr noundef nonnull @.str.6, i32 noundef %.sink, ptr noundef nonnull @__func__.rescanLatestTimeLine) #23
  br label %41

41:                                               ; preds = %.sink.split, %34, %27, %._crit_edge, %2
  %.0 = phi i1 [ false, %2 ], [ false, %._crit_edge ], [ false, %27 ], [ true, %34 ], [ %.0.ph, %.sink.split ]
  ret i1 %.0
}